; Function Attrs: mustprogress uwtable
define hidden void @_ZN6spacer10iuc_solver12elim_proxiesER10ref_vectorI4expr11ast_managerE(ptr noundef nonnull align 8 dereferenceable(398) %this, ptr noundef nonnull align 8 dereferenceable(16) %v) local_unnamed_addr #3 align 2 personality ptr @__gxx_personality_v0 {
entry:
  %rep = alloca %class.scoped_ptr.55, align 8
  %ref.tmp = alloca %class.params_ref, align 8
  %m = getelementptr inbounds i8, ptr %this, i64 8
  %0 = load ptr, ptr %m, align 8
  store ptr null, ptr %ref.tmp, align 8
  %call = invoke noundef ptr @_Z21mk_expr_simp_replacerR11ast_managerRK10params_ref(ptr noundef nonnull align 8 dereferenceable(976) %0, ptr noundef nonnull align 8 dereferenceable(8) %ref.tmp)
          to label %invoke.cont unwind label %lpad

invoke.cont:                                      ; preds = %entry
  store ptr %call, ptr %rep, align 8
  call void @_ZN10params_refD1Ev(ptr noundef nonnull align 8 dereferenceable(8) %ref.tmp) #21
  %m_elim_proxies_sub = getelementptr inbounds i8, ptr %this, i64 328
  %vtable = load ptr, ptr %call, align 8
  %vfn = getelementptr inbounds i8, ptr %vtable, i64 24
  %1 = load ptr, ptr %vfn, align 8
  invoke void %1(ptr noundef nonnull align 8 dereferenceable(8) %call, ptr noundef nonnull %m_elim_proxies_sub)
          to label %invoke.cont6 unwind label %lpad3

invoke.cont6:                                     ; preds = %invoke.cont
  invoke void @_ZN13expr_replacerclER10ref_vectorI4expr11ast_managerE(ptr noundef nonnull align 8 dereferenceable(8) %call, ptr noundef nonnull align 8 dereferenceable(16) %v)
          to label %invoke.cont9 unwind label %lpad3

invoke.cont9:                                     ; preds = %invoke.cont6
  invoke void @_Z11flatten_andR10ref_vectorI4expr11ast_managerE(ptr noundef nonnull align 8 dereferenceable(16) %v)
          to label %if.end.i.i unwind label %lpad3

if.end.i.i:                                       ; preds = %invoke.cont9
  %vtable.i.i = load ptr, ptr %call, align 8
  %2 = load ptr, ptr %vtable.i.i, align 8
  call void %2(ptr noundef nonnull align 8 dereferenceable(8) %call) #21
  invoke void @_ZN6memory10deallocateEPv(ptr noundef nonnull %call)
          to label %_ZN10scoped_ptrI13expr_replacerED2Ev.exit unwind label %terminate.lpad.i

terminate.lpad.i:                                 ; preds = %if.end.i.i
  %3 = landingpad { ptr, i32 }
          catch ptr null
  %4 = extractvalue { ptr, i32 } %3, 0
  call void @__clang_call_terminate(ptr %4) #22
  unreachable

_ZN10scoped_ptrI13expr_replacerED2Ev.exit:        ; preds = %if.end.i.i
  ret void

lpad:                                             ; preds = %entry
  %5 = landingpad { ptr, i32 }
          cleanup
  call void @_ZN10params_refD1Ev(ptr noundef nonnull align 8 dereferenceable(8) %ref.tmp) #21
  br label %eh.resume

lpad3:                                            ; preds = %invoke.cont9, %invoke.cont6, %invoke.cont
  %6 = landingpad { ptr, i32 }
          cleanup
  call void @_ZN10scoped_ptrI13expr_replacerED2Ev(ptr noundef nonnull align 8 dereferenceable(8) %rep) #21
  br label %eh.resume

eh.resume:                                        ; preds = %lpad3, %lpad
  %.pn = phi { ptr, i32 } [ %6, %lpad3 ], [ %5, %lpad ]
  resume { ptr, i32 } %.pn
}